; Function Attrs: nounwind sspstrong uwtable
define internal i64 @rb_class_alloc_m(i64 noundef %0) #2 {
  %2 = inttoptr i64 %0 to ptr
  %3 = getelementptr inbounds nuw i8, ptr %2, i64 16
  %4 = load i64, ptr %3, align 8, !tbaa !25
  %5 = icmp ne i64 %4, 0
  %6 = load i64, ptr @rb_cBasicObject, align 8
  %.not.i = icmp eq i64 %0, %6
  %or.cond.i = select i1 %5, i1 true, i1 %.not.i
  br i1 %or.cond.i, label %9, label %7

7:                                                ; preds = %1
  %8 = load i64, ptr @rb_eTypeError, align 8, !tbaa !7
  tail call void (i64, ptr, ...) @rb_raise(i64 noundef %8, ptr noundef nonnull @.str.141) #24
  unreachable

9:                                                ; preds = %1
  %10 = icmp eq i64 %0, 0
  %11 = and i64 %0, 7
  %12 = icmp ne i64 %11, 0
  %13 = or i1 %10, %12
  br i1 %13, label %RCLASS_SINGLETON_P.exit.thread.i, label %rbimpl_RB_TYPE_P_fastpath.exit.i.i

rbimpl_RB_TYPE_P_fastpath.exit.i.i:               ; preds = %9
  %14 = load i64, ptr %2, align 8, !tbaa !24
  %15 = and i64 %14, 8223
  %or.cond8.i = icmp eq i64 %15, 8194
  br i1 %or.cond8.i, label %16, label %RCLASS_SINGLETON_P.exit.thread.i

16:                                               ; preds = %rbimpl_RB_TYPE_P_fastpath.exit.i.i
  %17 = load i64, ptr @rb_eTypeError, align 8, !tbaa !7
  tail call void (i64, ptr, ...) @rb_raise(i64 noundef %17, ptr noundef nonnull @.str.142) #24
  unreachable

RCLASS_SINGLETON_P.exit.thread.i:                 ; preds = %rbimpl_RB_TYPE_P_fastpath.exit.i.i, %9
  %18 = tail call ptr @rb_get_alloc_func(i64 noundef %0) #23
  %.not6.i = icmp eq ptr %18, null
  br i1 %.not6.i, label %19, label %class_get_alloc_func.exit

19:                                               ; preds = %RCLASS_SINGLETON_P.exit.thread.i
  tail call void @rb_undefined_alloc(i64 noundef %0) #27
  unreachable

class_get_alloc_func.exit:                        ; preds = %RCLASS_SINGLETON_P.exit.thread.i
  %.pr.i = load i64, ptr @rb_class_alloc_m.rbimpl_id, align 8, !tbaa !7
  %.not4.i = icmp eq i64 %.pr.i, 0
  br i1 %.not4.i, label %.lr.ph.i, label %rbimpl_intern_const.exit

.lr.ph.i:                                         ; preds = %class_get_alloc_func.exit, %.lr.ph.i
  %20 = tail call i64 @rb_intern2(ptr noundef nonnull @.str.93, i64 noundef 8) #23
  store i64 %20, ptr @rb_class_alloc_m.rbimpl_id, align 8, !tbaa !7
  %.not.i5 = icmp eq i64 %20, 0
  br i1 %.not.i5, label %.lr.ph.i, label %rbimpl_intern_const.exit, !llvm.loop !36

rbimpl_intern_const.exit:                         ; preds = %.lr.ph.i, %class_get_alloc_func.exit
  %.lcssa.i = phi i64 [ %.pr.i, %class_get_alloc_func.exit ], [ %20, %.lr.ph.i ]
  %21 = tail call i32 @rb_obj_respond_to(i64 noundef %0, i64 noundef %.lcssa.i, i32 noundef 1) #23
  %.not = icmp eq i32 %21, 0
  br i1 %.not, label %22, label %24

22:                                               ; preds = %rbimpl_intern_const.exit
  %23 = load i64, ptr @rb_eTypeError, align 8, !tbaa !7
  tail call void (i64, ptr, ...) @rb_raise(i64 noundef %23, ptr noundef nonnull @.str.174, i64 noundef %0) #24
  unreachable

24:                                               ; preds = %rbimpl_intern_const.exit
  %25 = tail call fastcc i64 @class_call_alloc_func(ptr noundef %18, i64 noundef %0)
  ret i64 %25
}